target datalayout = "e-m:e-p270:32:32-p271:32:32-p272:64:64-i64:64-i128:128-f80:128-n8:16:32:64-S128"
target triple = "x86_64-pc-linux-gnu"

%class.Type = type <{ ptr, ptr, i32, [4 x i8] }>
%class.Type.base = type <{ ptr, ptr, i32 }>
%class.TypeInteger.base = type { %class.Type.base, i16 }
%class.TypeLong = type { %class.TypeInteger.base, i64, i64 }

; Function Attrs: mustprogress nounwind uwtable
define linkonce_odr hidden noundef ptr @_ZNK4Type8isa_longEv(ptr noundef nonnull align 8 dereferenceable(20) %0) #1 comdat align 2 {
  %2 = alloca ptr, align 8
  store ptr %0, ptr %2, align 8
  %3 = load ptr, ptr %2, align 8
  %4 = getelementptr inbounds %class.Type, ptr %3, i32 0, i32 2
  %5 = load i32, ptr %4, align 8
  %6 = icmp eq i32 %5, 4
  br i1 %6, label %7, label %8

7:                                                ; preds = %1
  br label %9

8:                                                ; preds = %1
  br label %9

9:                                                ; preds = %8, %7
  %10 = phi ptr [ %3, %7 ], [ null, %8 ]
  ret ptr %10
}

; Function Attrs: mustprogress nounwind uwtable
define hidden noundef ptr @_ZNK8TypeLong6narrowEPK4Type(ptr noundef nonnull align 8 dereferenceable(40) %0, ptr noundef %1) unnamed_addr #1 align 2 {
  %3 = alloca ptr, align 8
  %4 = alloca ptr, align 8
  %5 = alloca ptr, align 8
  %6 = alloca ptr, align 8
  %7 = alloca i64, align 8
  %8 = alloca i64, align 8
  %9 = alloca i64, align 8
  %10 = alloca i64, align 8
  store ptr %0, ptr %4, align 8
  store ptr %1, ptr %5, align 8
  %11 = load ptr, ptr %4, align 8
  %12 = getelementptr inbounds %class.TypeLong, ptr %11, i32 0, i32 1
  %13 = load i64, ptr %12, align 8
  %14 = getelementptr inbounds %class.TypeLong, ptr %11, i32 0, i32 2
  %15 = load i64, ptr %14, align 8
  %16 = icmp sge i64 %13, %15
  br i1 %16, label %17, label %18

17:                                               ; preds = %2
  store ptr %11, ptr %3, align 8
  br label %84

18:                                               ; preds = %2
  %19 = load ptr, ptr %5, align 8
  %20 = icmp eq ptr %19, null
  br i1 %20, label %21, label %22

21:                                               ; preds = %18
  store ptr %11, ptr %3, align 8
  br label %84

22:                                               ; preds = %18
  %23 = load ptr, ptr %5, align 8
  %24 = call noundef ptr @_ZNK4Type8isa_longEv(ptr noundef nonnull align 8 dereferenceable(20) %23)
  store ptr %24, ptr %6, align 8
  %25 = load ptr, ptr %6, align 8
  %26 = icmp eq ptr %25, null
  br i1 %26, label %27, label %28

27:                                               ; preds = %22
  store ptr %11, ptr %3, align 8
  br label %84

28:                                               ; preds = %22
  %29 = load ptr, ptr %6, align 8
  %30 = getelementptr inbounds %class.TypeLong, ptr %29, i32 0, i32 1
  %31 = load i64, ptr %30, align 8
  store i64 %31, ptr %7, align 8
  %32 = load ptr, ptr %6, align 8
  %33 = getelementptr inbounds %class.TypeLong, ptr %32, i32 0, i32 2
  %34 = load i64, ptr %33, align 8
  store i64 %34, ptr %8, align 8
  %35 = getelementptr inbounds %class.TypeLong, ptr %11, i32 0, i32 1
  %36 = load i64, ptr %35, align 8
  %37 = load i64, ptr %7, align 8
  %38 = icmp eq i64 %36, %37
  br i1 %38, label %39, label %46

39:                                               ; preds = %28
  %40 = getelementptr inbounds %class.TypeLong, ptr %11, i32 0, i32 2
  %41 = load i64, ptr %40, align 8
  %42 = load i64, ptr %8, align 8
  %43 = icmp eq i64 %41, %42
  br i1 %43, label %44, label %46

44:                                               ; preds = %39
  %45 = load ptr, ptr %5, align 8
  store ptr %45, ptr %3, align 8
  br label %84

46:                                               ; preds = %39, %28
  %47 = load i64, ptr %7, align 8
  %48 = icmp eq i64 %47, -9223372036854775808
  br i1 %48, label %49, label %53

49:                                               ; preds = %46
  %50 = load i64, ptr %8, align 8
  %51 = icmp eq i64 %50, 9223372036854775807
  br i1 %51, label %52, label %53

52:                                               ; preds = %49
  store ptr %11, ptr %3, align 8
  br label %84

53:                                               ; preds = %49, %46
  %54 = getelementptr inbounds %class.TypeLong, ptr %11, i32 0, i32 1
  %55 = load i64, ptr %54, align 8
  %56 = load i64, ptr %7, align 8
  %57 = icmp slt i64 %55, %56
  br i1 %57, label %63, label %58

58:                                               ; preds = %53
  %59 = getelementptr inbounds %class.TypeLong, ptr %11, i32 0, i32 2
  %60 = load i64, ptr %59, align 8
  %61 = load i64, ptr %8, align 8
  %62 = icmp sgt i64 %60, %61
  br i1 %62, label %63, label %64

63:                                               ; preds = %58, %53
  store ptr %11, ptr %3, align 8
  br label %84

64:                                               ; preds = %58
  %65 = getelementptr inbounds %class.TypeLong, ptr %11, i32 0, i32 2
  %66 = load i64, ptr %65, align 8
  %67 = getelementptr inbounds %class.TypeLong, ptr %11, i32 0, i32 1
  %68 = load i64, ptr %67, align 8
  %69 = sub i64 %66, %68
  store i64 %69, ptr %9, align 8
  %70 = load i64, ptr %8, align 8
  %71 = load i64, ptr %7, align 8
  %72 = sub i64 %70, %71
  store i64 %72, ptr %10, align 8
  %73 = load i64, ptr %9, align 8
  %74 = icmp ult i64 %73, -2
  br i1 %74, label %75, label %83

75:                                               ; preds = %64
  %76 = load i64, ptr %9, align 8
  %77 = load i64, ptr %10, align 8
  %78 = lshr i64 %77, 1
  %79 = add i64 %78, 6
  %80 = icmp ugt i64 %76, %79
  br i1 %80, label %81, label %83

81:                                               ; preds = %75
  %82 = load ptr, ptr %5, align 8
  store ptr %82, ptr %3, align 8
  br label %84

83:                                               ; preds = %75, %64
  store ptr %11, ptr %3, align 8
  br label %84

84:                                               ; preds = %83, %81, %63, %52, %44, %27, %21, %17
  %85 = load ptr, ptr %3, align 8
  ret ptr %85
}