; Function Attrs: mustprogress nofree norecurse nosync nounwind willreturn memory(argmem: read) uwtable
define hidden noundef ptr @_ZNK8TypeLong6narrowEPK4Type(ptr noundef nonnull readonly align 8 dereferenceable(40) %0, ptr noundef readonly %1) unnamed_addr #6 align 2 {
  %3 = getelementptr inbounds i8, ptr %0, i64 24
  %4 = load i64, ptr %3, align 8
  %5 = getelementptr inbounds i8, ptr %0, i64 32
  %6 = load i64, ptr %5, align 8
  %.not = icmp sge i64 %4, %6
  %7 = icmp eq ptr %1, null
  %or.cond29 = or i1 %7, %.not
  br i1 %or.cond29, label %32, label %8

8:                                                ; preds = %2
  %9 = getelementptr inbounds i8, ptr %1, i64 16
  %10 = load i32, ptr %9, align 8
  %.not32 = icmp eq i32 %10, 4
  br i1 %.not32, label %11, label %32

11:                                               ; preds = %8
  %12 = getelementptr inbounds i8, ptr %1, i64 24
  %13 = load i64, ptr %12, align 8
  %14 = getelementptr inbounds i8, ptr %1, i64 32
  %15 = load i64, ptr %14, align 8
  %16 = icmp eq i64 %4, %13
  %17 = icmp eq i64 %6, %15
  %or.cond28 = select i1 %16, i1 %17, i1 false
  br i1 %or.cond28, label %32, label %18

18:                                               ; preds = %11
  %19 = icmp eq i64 %13, -9223372036854775808
  %20 = icmp eq i64 %15, 9223372036854775807
  %or.cond = select i1 %19, i1 %20, i1 false
  %21 = icmp slt i64 %4, %13
  %or.cond30 = or i1 %21, %or.cond
  %22 = icmp sgt i64 %6, %15
  %or.cond31 = select i1 %or.cond30, i1 true, i1 %22
  br i1 %or.cond31, label %32, label %23

23:                                               ; preds = %18
  %24 = sub i64 %6, %4
  %25 = icmp ult i64 %24, -2
  br i1 %25, label %26, label %31

26:                                               ; preds = %23
  %27 = sub i64 %15, %13
  %28 = lshr i64 %27, 1
  %29 = add nuw i64 %28, 6
  %30 = icmp ugt i64 %24, %29
  br i1 %30, label %32, label %31

31:                                               ; preds = %26, %23
  br label %32

32:                                               ; preds = %26, %18, %11, %8, %2, %31
  %.0 = phi ptr [ %0, %31 ], [ %0, %2 ], [ %0, %8 ], [ %1, %11 ], [ %0, %18 ], [ %1, %26 ]
  ret ptr %.0
}